target datalayout = "e-m:e-p270:32:32-p271:32:32-p272:64:64-i64:64-f80:128-n8:16:32:64-S128"
target triple = "x86_64-pc-linux-gnu"

@.str = private unnamed_addr constant [3 x i8] c"%d\00", align 1
@.str.1 = private unnamed_addr constant [7 x i8] c"%d,%d\0A\00", align 1

; Function Attrs: noinline nounwind uwtable
define dso_local void @main() #0 {
  %1 = alloca i32, align 4
  %2 = alloca i32*, align 8
  %3 = alloca i32, align 4
  %4 = alloca i32, align 4
  %5 = alloca i32, align 4
  %6 = alloca float, align 4
  %7 = alloca float*, align 8
  %8 = alloca float, align 4
  %9 = alloca float, align 4
  %10 = alloca i32, align 4
  %11 = alloca i32, align 4
  store i32 0, i32* %4, align 4
  %12 = call i32 (i8*, ...) @__isoc99_scanf(i8* getelementptr inbounds ([3 x i8], [3 x i8]* @.str, i64 0, i64 0), i32* %1)
  %13 = load i32, i32* %1, align 4
  %14 = sext i32 %13 to i64
  %15 = mul i64 4, %14
  %16 = call noalias i8* @malloc(i64 %15) #3
  %17 = bitcast i8* %16 to i32*
  store i32* %17, i32** %2, align 8
  %18 = load i32, i32* %1, align 4
  %19 = sext i32 %18 to i64
  %20 = mul i64 4, %19
  %21 = call noalias i8* @malloc(i64 %20) #3
  %22 = bitcast i8* %21 to float*
  store float* %22, float** %7, align 8
  store i32 0, i32* %3, align 4
  br label %23

23:                                               ; preds = %33, %0
  %24 = load i32, i32* %3, align 4
  %25 = load i32, i32* %1, align 4
  %26 = icmp slt i32 %24, %25
  br i1 %26, label %27, label %36

27:                                               ; preds = %23
  %28 = load i32*, i32** %2, align 8
  %29 = load i32, i32* %3, align 4
  %30 = sext i32 %29 to i64
  %31 = getelementptr inbounds i32, i32* %28, i64 %30
  %32 = call i32 (i8*, ...) @__isoc99_scanf(i8* getelementptr inbounds ([3 x i8], [3 x i8]* @.str, i64 0, i64 0), i32* %31)
  br label %33

33:                                               ; preds = %27
  %34 = load i32, i32* %3, align 4
  %35 = add nsw i32 %34, 1
  store i32 %35, i32* %3, align 4
  br label %23

36:                                               ; preds = %23
  store i32 0, i32* %3, align 4
  br label %37

37:                                               ; preds = %49, %36
  %38 = load i32, i32* %3, align 4
  %39 = load i32, i32* %1, align 4
  %40 = icmp slt i32 %38, %39
  br i1 %40, label %41, label %52

41:                                               ; preds = %37
  %42 = load i32, i32* %4, align 4
  %43 = load i32*, i32** %2, align 8
  %44 = load i32, i32* %3, align 4
  %45 = sext i32 %44 to i64
  %46 = getelementptr inbounds i32, i32* %43, i64 %45
  %47 = load i32, i32* %46, align 4
  %48 = add nsw i32 %42, %47
  store i32 %48, i32* %4, align 4
  br label %49

49:                                               ; preds = %41
  %50 = load i32, i32* %3, align 4
  %51 = add nsw i32 %50, 1
  store i32 %51, i32* %3, align 4
  br label %37

52:                                               ; preds = %37
  %53 = load i32, i32* %4, align 4
  %54 = sitofp i32 %53 to float
  %55 = load i32, i32* %1, align 4
  %56 = sitofp i32 %55 to float
  %57 = fdiv float %54, %56
  store float %57, float* %6, align 4
  store i32 0, i32* %3, align 4
  br label %58

58:                                               ; preds = %84, %52
  %59 = load i32, i32* %3, align 4
  %60 = load i32, i32* %1, align 4
  %61 = icmp slt i32 %59, %60
  br i1 %61, label %62, label %87

62:                                               ; preds = %58
  %63 = load float, float* %6, align 4
  %64 = load i32*, i32** %2, align 8
  %65 = load i32, i32* %3, align 4
  %66 = sext i32 %65 to i64
  %67 = getelementptr inbounds i32, i32* %64, i64 %66
  %68 = load i32, i32* %67, align 4
  %69 = sitofp i32 %68 to float
  %70 = fsub float %63, %69
  store float %70, float* %8, align 4
  %71 = load float, float* %8, align 4
  %72 = fcmp oge float %71, 0.000000e+00
  br i1 %72, label %73, label %75

73:                                               ; preds = %62
  %74 = load float, float* %8, align 4
  br label %78

75:                                               ; preds = %62
  %76 = load float, float* %8, align 4
  %77 = fneg float %76
  br label %78

78:                                               ; preds = %75, %73
  %79 = phi float [ %74, %73 ], [ %77, %75 ]
  %80 = load float*, float** %7, align 8
  %81 = load i32, i32* %3, align 4
  %82 = sext i32 %81 to i64
  %83 = getelementptr inbounds float, float* %80, i64 %82
  store float %79, float* %83, align 4
  br label %84

84:                                               ; preds = %78
  %85 = load i32, i32* %3, align 4
  %86 = add nsw i32 %85, 1
  store i32 %86, i32* %3, align 4
  br label %58

87:                                               ; preds = %58
  store i32 0, i32* %3, align 4
  br label %88

88:                                               ; preds = %162, %87
  %89 = load i32, i32* %3, align 4
  %90 = load i32, i32* %1, align 4
  %91 = icmp slt i32 %89, %90
  br i1 %91, label %92, label %165

92:                                               ; preds = %88
  %93 = load i32, i32* %3, align 4
  store i32 %93, i32* %11, align 4
  %94 = load i32, i32* %3, align 4
  %95 = add nsw i32 %94, 1
  store i32 %95, i32* %10, align 4
  br label %96

96:                                               ; preds = %115, %92
  %97 = load i32, i32* %10, align 4
  %98 = load i32, i32* %1, align 4
  %99 = icmp slt i32 %97, %98
  br i1 %99, label %100, label %118

100:                                              ; preds = %96
  %101 = load float*, float** %7, align 8
  %102 = load i32, i32* %10, align 4
  %103 = sext i32 %102 to i64
  %104 = getelementptr inbounds float, float* %101, i64 %103
  %105 = load float, float* %104, align 4
  %106 = load float*, float** %7, align 8
  %107 = load i32, i32* %11, align 4
  %108 = sext i32 %107 to i64
  %109 = getelementptr inbounds float, float* %106, i64 %108
  %110 = load float, float* %109, align 4
  %111 = fcmp oge float %105, %110
  br i1 %111, label %112, label %114

112:                                              ; preds = %100
  %113 = load i32, i32* %10, align 4
  store i32 %113, i32* %11, align 4
  br label %114

114:                                              ; preds = %112, %100
  br label %115

115:                                              ; preds = %114
  %116 = load i32, i32* %10, align 4
  %117 = add nsw i32 %116, 1
  store i32 %117, i32* %10, align 4
  br label %96

118:                                              ; preds = %96
  %119 = load i32, i32* %11, align 4
  %120 = load i32, i32* %3, align 4
  %121 = icmp ne i32 %119, %120
  br i1 %121, label %122, label %161

122:                                              ; preds = %118
  %123 = load float*, float** %7, align 8
  %124 = load i32, i32* %11, align 4
  %125 = sext i32 %124 to i64
  %126 = getelementptr inbounds float, float* %123, i64 %125
  %127 = load float, float* %126, align 4
  store float %127, float* %9, align 4
  %128 = load float*, float** %7, align 8
  %129 = load i32, i32* %3, align 4
  %130 = sext i32 %129 to i64
  %131 = getelementptr inbounds float, float* %128, i64 %130
  %132 = load float, float* %131, align 4
  %133 = load float*, float** %7, align 8
  %134 = load i32, i32* %11, align 4
  %135 = sext i32 %134 to i64
  %136 = getelementptr inbounds float, float* %133, i64 %135
  store float %132, float* %136, align 4
  %137 = load float, float* %9, align 4
  %138 = load float*, float** %7, align 8
  %139 = load i32, i32* %3, align 4
  %140 = sext i32 %139 to i64
  %141 = getelementptr inbounds float, float* %138, i64 %140
  store float %137, float* %141, align 4
  %142 = load i32*, i32** %2, align 8
  %143 = load i32, i32* %11, align 4
  %144 = sext i32 %143 to i64
  %145 = getelementptr inbounds i32, i32* %142, i64 %144
  %146 = load i32, i32* %145, align 4
  store i32 %146, i32* %5, align 4
  %147 = load i32*, i32** %2, align 8
  %148 = load i32, i32* %3, align 4
  %149 = sext i32 %148 to i64
  %150 = getelementptr inbounds i32, i32* %147, i64 %149
  %151 = load i32, i32* %150, align 4
  %152 = load i32*, i32** %2, align 8
  %153 = load i32, i32* %11, align 4
  %154 = sext i32 %153 to i64
  %155 = getelementptr inbounds i32, i32* %152, i64 %154
  store i32 %151, i32* %155, align 4
  %156 = load i32, i32* %5, align 4
  %157 = load i32*, i32** %2, align 8
  %158 = load i32, i32* %3, align 4
  %159 = sext i32 %158 to i64
  %160 = getelementptr inbounds i32, i32* %157, i64 %159
  store i32 %156, i32* %160, align 4
  br label %161

161:                                              ; preds = %122, %118
  br label %162

162:                                              ; preds = %161
  %163 = load i32, i32* %3, align 4
  %164 = add nsw i32 %163, 1
  store i32 %164, i32* %3, align 4
  br label %88

165:                                              ; preds = %88
  %166 = load float*, float** %7, align 8
  %167 = getelementptr inbounds float, float* %166, i64 0
  %168 = load float, float* %167, align 4
  %169 = load float*, float** %7, align 8
  %170 = getelementptr inbounds float, float* %169, i64 1
  %171 = load float, float* %170, align 4
  %172 = fcmp une float %168, %171
  br i1 %172, label %173, label %178

173:                                              ; preds = %165
  %174 = load i32*, i32** %2, align 8
  %175 = getelementptr inbounds i32, i32* %174, i64 0
  %176 = load i32, i32* %175, align 4
  %177 = call i32 (i8*, ...) @printf(i8* getelementptr inbounds ([3 x i8], [3 x i8]* @.str, i64 0, i64 0), i32 %176)
  br label %212

178:                                              ; preds = %165
  %179 = load i32*, i32** %2, align 8
  %180 = getelementptr inbounds i32, i32* %179, i64 0
  %181 = load i32, i32* %180, align 4
  %182 = load i32*, i32** %2, align 8
  %183 = getelementptr inbounds i32, i32* %182, i64 1
  %184 = load i32, i32* %183, align 4
  %185 = icmp sge i32 %181, %184
  br i1 %185, label %186, label %194

186:                                              ; preds = %178
  %187 = load i32*, i32** %2, align 8
  %188 = getelementptr inbounds i32, i32* %187, i64 1
  %189 = load i32, i32* %188, align 4
  %190 = load i32*, i32** %2, align 8
  %191 = getelementptr inbounds i32, i32* %190, i64 0
  %192 = load i32, i32* %191, align 4
  %193 = call i32 (i8*, ...) @printf(i8* getelementptr inbounds ([7 x i8], [7 x i8]* @.str.1, i64 0, i64 0), i32 %189, i32 %192)
  br label %211

194:                                              ; preds = %178
  %195 = load i32*, i32** %2, align 8
  %196 = getelementptr inbounds i32, i32* %195, i64 0
  %197 = load i32, i32* %196, align 4
  %198 = load i32*, i32** %2, align 8
  %199 = getelementptr inbounds i32, i32* %198, i64 1
  %200 = load i32, i32* %199, align 4
  %201 = icmp slt i32 %197, %200
  br i1 %201, label %202, label %210

202:                                              ; preds = %194
  %203 = load i32*, i32** %2, align 8
  %204 = getelementptr inbounds i32, i32* %203, i64 0
  %205 = load i32, i32* %204, align 4
  %206 = load i32*, i32** %2, align 8
  %207 = getelementptr inbounds i32, i32* %206, i64 1
  %208 = load i32, i32* %207, align 4
  %209 = call i32 (i8*, ...) @printf(i8* getelementptr inbounds ([7 x i8], [7 x i8]* @.str.1, i64 0, i64 0), i32 %205, i32 %208)
  br label %210

210:                                              ; preds = %202, %194
  br label %211

211:                                              ; preds = %210, %186
  br label %212

212:                                              ; preds = %211, %173
  %213 = load i32*, i32** %2, align 8
  %214 = bitcast i32* %213 to i8*
  call void @free(i8* %214) #3
  %215 = load float*, float** %7, align 8
  %216 = bitcast float* %215 to i8*
  call void @free(i8* %216) #3
  ret void
}